target datalayout = "e-m:e-p270:32:32-p271:32:32-p272:64:64-i64:64-i128:128-f80:128-n8:16:32:64-S128"
target triple = "x86_64-pc-linux-gnu"

%struct._sapi_module_struct = type { ptr, ptr, ptr, ptr, ptr, ptr, ptr, ptr, ptr, ptr, ptr, ptr, ptr, ptr, ptr, ptr, ptr, ptr, ptr, ptr, ptr, ptr, ptr, ptr, i32, i32, ptr, ptr, ptr, ptr, ptr, ptr, i32, ptr, ptr, ptr }

@.str.40 = private unnamed_addr constant [1 x i8] zeroinitializer, align 1
@php_import_environment_variables = external global ptr, align 8
@php_self = internal global ptr @.str.40, align 8
@sapi_module = external global %struct._sapi_module_struct, align 8
@.str.41 = private unnamed_addr constant [9 x i8] c"PHP_SELF\00", align 1
@.str.42 = private unnamed_addr constant [12 x i8] c"SCRIPT_NAME\00", align 1
@script_filename = internal global ptr @.str.40, align 8
@.str.43 = private unnamed_addr constant [16 x i8] c"SCRIPT_FILENAME\00", align 1
@.str.44 = private unnamed_addr constant [16 x i8] c"PATH_TRANSLATED\00", align 1
@.str.45 = private unnamed_addr constant [14 x i8] c"DOCUMENT_ROOT\00", align 1

; Function Attrs: nounwind uwtable
define internal void @sapi_cli_register_variables(ptr noundef %0) #0 {
  %2 = alloca ptr, align 8
  %3 = alloca i64, align 8
  %4 = alloca ptr, align 8
  store ptr %0, ptr %2, align 8
  store ptr @.str.40, ptr %4, align 8
  %5 = load ptr, ptr @php_import_environment_variables, align 8
  %6 = load ptr, ptr %2, align 8
  call void %5(ptr noundef %6)
  %7 = load ptr, ptr @php_self, align 8
  %8 = call i64 @strlen(ptr noundef %7) #16
  store i64 %8, ptr %3, align 8
  %9 = load ptr, ptr getelementptr inbounds (%struct._sapi_module_struct, ptr @sapi_module, i32 0, i32 30), align 8
  %10 = load i64, ptr %3, align 8
  %11 = call i32 %9(i32 noundef 5, ptr noundef @.str.41, ptr noundef @php_self, i64 noundef %10, ptr noundef %3)
  %12 = icmp ne i32 %11, 0
  br i1 %12, label %13, label %16

13:                                               ; preds = %1
  %14 = load ptr, ptr @php_self, align 8
  %15 = load ptr, ptr %2, align 8
  call void @php_register_variable(ptr noundef @.str.41, ptr noundef %14, ptr noundef %15)
  br label %16

16:                                               ; preds = %13, %1
  %17 = load ptr, ptr getelementptr inbounds (%struct._sapi_module_struct, ptr @sapi_module, i32 0, i32 30), align 8
  %18 = load i64, ptr %3, align 8
  %19 = call i32 %17(i32 noundef 5, ptr noundef @.str.42, ptr noundef @php_self, i64 noundef %18, ptr noundef %3)
  %20 = icmp ne i32 %19, 0
  br i1 %20, label %21, label %24

21:                                               ; preds = %16
  %22 = load ptr, ptr @php_self, align 8
  %23 = load ptr, ptr %2, align 8
  call void @php_register_variable(ptr noundef @.str.42, ptr noundef %22, ptr noundef %23)
  br label %24

24:                                               ; preds = %21, %16
  %25 = load ptr, ptr @script_filename, align 8
  %26 = call i64 @strlen(ptr noundef %25) #16
  store i64 %26, ptr %3, align 8
  %27 = load ptr, ptr getelementptr inbounds (%struct._sapi_module_struct, ptr @sapi_module, i32 0, i32 30), align 8
  %28 = load i64, ptr %3, align 8
  %29 = call i32 %27(i32 noundef 5, ptr noundef @.str.43, ptr noundef @script_filename, i64 noundef %28, ptr noundef %3)
  %30 = icmp ne i32 %29, 0
  br i1 %30, label %31, label %34

31:                                               ; preds = %24
  %32 = load ptr, ptr @script_filename, align 8
  %33 = load ptr, ptr %2, align 8
  call void @php_register_variable(ptr noundef @.str.43, ptr noundef %32, ptr noundef %33)
  br label %34

34:                                               ; preds = %31, %24
  %35 = load ptr, ptr getelementptr inbounds (%struct._sapi_module_struct, ptr @sapi_module, i32 0, i32 30), align 8
  %36 = load i64, ptr %3, align 8
  %37 = call i32 %35(i32 noundef 5, ptr noundef @.str.44, ptr noundef @script_filename, i64 noundef %36, ptr noundef %3)
  %38 = icmp ne i32 %37, 0
  br i1 %38, label %39, label %42

39:                                               ; preds = %34
  %40 = load ptr, ptr @script_filename, align 8
  %41 = load ptr, ptr %2, align 8
  call void @php_register_variable(ptr noundef @.str.44, ptr noundef %40, ptr noundef %41)
  br label %42

42:                                               ; preds = %39, %34
  store i64 0, ptr %3, align 8
  %43 = load ptr, ptr getelementptr inbounds (%struct._sapi_module_struct, ptr @sapi_module, i32 0, i32 30), align 8
  %44 = load i64, ptr %3, align 8
  %45 = call i32 %43(i32 noundef 5, ptr noundef @.str.45, ptr noundef %4, i64 noundef %44, ptr noundef %3)
  %46 = icmp ne i32 %45, 0
  br i1 %46, label %47, label %50

47:                                               ; preds = %42
  %48 = load ptr, ptr %4, align 8
  %49 = load ptr, ptr %2, align 8
  call void @php_register_variable(ptr noundef @.str.45, ptr noundef %48, ptr noundef %49)
  br label %50

50:                                               ; preds = %47, %42
  ret void
}