; Function Attrs: nounwind uwtable
define internal void @sapi_cli_register_variables(ptr noundef %0) #1 {
  %2 = alloca i64, align 8
  %3 = alloca ptr, align 8
  store ptr @.str.40, ptr %3, align 8
  %4 = load ptr, ptr @php_import_environment_variables, align 8
  tail call void %4(ptr noundef %0) #23
  %5 = load ptr, ptr @php_self, align 8
  %6 = tail call i64 @strlen(ptr noundef nonnull dereferenceable(1) %5) #25
  store i64 %6, ptr %2, align 8
  %7 = load ptr, ptr getelementptr inbounds (%struct._sapi_module_struct, ptr @sapi_module, i64 0, i32 30), align 8
  %8 = call i32 %7(i32 noundef 5, ptr noundef nonnull @.str.41, ptr noundef nonnull @php_self, i64 noundef %6, ptr noundef nonnull %2) #23
  %.not = icmp eq i32 %8, 0
  br i1 %.not, label %11, label %9

9:                                                ; preds = %1
  %10 = load ptr, ptr @php_self, align 8
  call void @php_register_variable(ptr noundef nonnull @.str.41, ptr noundef %10, ptr noundef %0) #23
  br label %11

11:                                               ; preds = %9, %1
  %12 = load ptr, ptr getelementptr inbounds (%struct._sapi_module_struct, ptr @sapi_module, i64 0, i32 30), align 8
  %13 = load i64, ptr %2, align 8
  %14 = call i32 %12(i32 noundef 5, ptr noundef nonnull @.str.42, ptr noundef nonnull @php_self, i64 noundef %13, ptr noundef nonnull %2) #23
  %.not6 = icmp eq i32 %14, 0
  br i1 %.not6, label %17, label %15

15:                                               ; preds = %11
  %16 = load ptr, ptr @php_self, align 8
  call void @php_register_variable(ptr noundef nonnull @.str.42, ptr noundef %16, ptr noundef %0) #23
  br label %17

17:                                               ; preds = %15, %11
  %18 = load ptr, ptr @script_filename, align 8
  %19 = call i64 @strlen(ptr noundef nonnull dereferenceable(1) %18) #25
  store i64 %19, ptr %2, align 8
  %20 = load ptr, ptr getelementptr inbounds (%struct._sapi_module_struct, ptr @sapi_module, i64 0, i32 30), align 8
  %21 = call i32 %20(i32 noundef 5, ptr noundef nonnull @.str.43, ptr noundef nonnull @script_filename, i64 noundef %19, ptr noundef nonnull %2) #23
  %.not7 = icmp eq i32 %21, 0
  br i1 %.not7, label %24, label %22

22:                                               ; preds = %17
  %23 = load ptr, ptr @script_filename, align 8
  call void @php_register_variable(ptr noundef nonnull @.str.43, ptr noundef %23, ptr noundef %0) #23
  br label %24

24:                                               ; preds = %22, %17
  %25 = load ptr, ptr getelementptr inbounds (%struct._sapi_module_struct, ptr @sapi_module, i64 0, i32 30), align 8
  %26 = load i64, ptr %2, align 8
  %27 = call i32 %25(i32 noundef 5, ptr noundef nonnull @.str.44, ptr noundef nonnull @script_filename, i64 noundef %26, ptr noundef nonnull %2) #23
  %.not8 = icmp eq i32 %27, 0
  br i1 %.not8, label %30, label %28

28:                                               ; preds = %24
  %29 = load ptr, ptr @script_filename, align 8
  call void @php_register_variable(ptr noundef nonnull @.str.44, ptr noundef %29, ptr noundef %0) #23
  br label %30

30:                                               ; preds = %28, %24
  store i64 0, ptr %2, align 8
  %31 = load ptr, ptr getelementptr inbounds (%struct._sapi_module_struct, ptr @sapi_module, i64 0, i32 30), align 8
  %32 = call i32 %31(i32 noundef 5, ptr noundef nonnull @.str.45, ptr noundef nonnull %3, i64 noundef 0, ptr noundef nonnull %2) #23
  %.not9 = icmp eq i32 %32, 0
  br i1 %.not9, label %35, label %33

33:                                               ; preds = %30
  %34 = load ptr, ptr %3, align 8
  call void @php_register_variable(ptr noundef nonnull @.str.45, ptr noundef %34, ptr noundef %0) #23
  br label %35

35:                                               ; preds = %33, %30
  ret void
}